; Function Attrs: mustprogress nofree norecurse nosync nounwind willreturn memory(write, argmem: readwrite, inaccessiblemem: none) uwtable
define void @_Z28reset_dd_statistics_countersP12gmx_domdec_t(ptr noundef readonly captures(none) %0) local_unnamed_addr #3 {
  %2 = getelementptr inbounds nuw i8, ptr %0, i64 912
  %3 = load ptr, ptr %2, align 8, !tbaa !27
  %4 = getelementptr inbounds nuw i8, ptr %3, i64 1664
  %5 = getelementptr inbounds nuw i8, ptr %3, i64 1744
  tail call void @llvm.memset.p0.i64(ptr noundef nonnull align 8 dereferenceable(76) %4, i8 0, i64 76, i1 false)
  tail call void @llvm.memset.p0.i64(ptr noundef nonnull align 8 dereferenceable(16) %5, i8 0, i64 16, i1 false)
  ret void
}